; Function Attrs: mustprogress uwtable
define i64 @_ZNK8QuantLib4Bond12maturityDateEv(ptr noundef nonnull align 8 dereferenceable(248) %this) local_unnamed_addr #9 align 2 {
entry:
  %retval.i = alloca %"class.QuantLib::Date", align 8
  %maturityDate_ = getelementptr inbounds nuw i8, ptr %this, i64 224
  call void @llvm.lifetime.start.p0(i64 8, ptr nonnull %retval.i)
  call void @_ZN8QuantLib4DateC1Ev(ptr noundef nonnull align 8 dereferenceable(8) %retval.i)
  %0 = load i64, ptr %retval.i, align 8
  call void @llvm.lifetime.end.p0(i64 8, ptr nonnull %retval.i)
  %1 = load i64, ptr %maturityDate_, align 8, !tbaa !72
  %cmp.i.not = icmp eq i64 %1, %0
  br i1 %cmp.i.not, label %if.else, label %return

if.else:                                          ; preds = %entry
  %call5 = call i64 @_ZN8QuantLib13BondFunctions12maturityDateERKNS_4BondE(ptr noundef nonnull align 8 dereferenceable(248) %this)
  br label %return

return:                                           ; preds = %entry, %if.else
  %retval.sroa.0.0 = phi i64 [ %call5, %if.else ], [ %1, %entry ]
  ret i64 %retval.sroa.0.0
}